target datalayout = "e-m:e-p270:32:32-p271:32:32-p272:64:64-i64:64-i128:128-f80:128-n8:16:32:64-S128"
target triple = "x86_64-pc-linux-gnu"

; Function Attrs: nounwind uwtable
define internal i32 @jac(ptr noundef %0, ptr noundef %1, ptr noundef %2, ptr noundef %3, ptr noundef %4, ptr noundef %5) #0 {
  %7 = alloca ptr, align 8
  %8 = alloca ptr, align 8
  %9 = alloca ptr, align 8
  %10 = alloca ptr, align 8
  %11 = alloca ptr, align 8
  %12 = alloca ptr, align 8
  %13 = alloca double, align 8
  %14 = alloca double, align 8
  %15 = alloca double, align 8
  %16 = alloca double, align 8
  %17 = alloca ptr, align 8
  %18 = alloca i32, align 4
  %19 = alloca i32, align 4
  %20 = alloca i32, align 4
  store ptr %0, ptr %7, align 8, !tbaa !4
  store ptr %1, ptr %8, align 8, !tbaa !4
  store ptr %2, ptr %9, align 8, !tbaa !10
  store ptr %3, ptr %10, align 8, !tbaa !9
  store ptr %4, ptr %11, align 8, !tbaa !4
  store ptr %5, ptr %12, align 8, !tbaa !4
  call void @llvm.lifetime.start.p0(i64 8, ptr %13) #5
  call void @llvm.lifetime.start.p0(i64 8, ptr %14) #5
  call void @llvm.lifetime.start.p0(i64 8, ptr %15) #5
  call void @llvm.lifetime.start.p0(i64 8, ptr %16) #5
  call void @llvm.lifetime.start.p0(i64 8, ptr %17) #5
  call void @llvm.lifetime.start.p0(i64 4, ptr %18) #5
  call void @llvm.lifetime.start.p0(i64 4, ptr %19) #5
  call void @llvm.lifetime.start.p0(i64 4, ptr %20) #5
  store double 3.125000e-02, ptr %13, align 8, !tbaa !18
  store double 3.125000e-02, ptr %14, align 8, !tbaa !18
  %21 = load double, ptr %13, align 8, !tbaa !18
  %22 = load double, ptr %13, align 8, !tbaa !18
  %23 = fmul double %21, %22
  %24 = fdiv double 1.000000e+00, %23
  store double %24, ptr %15, align 8, !tbaa !18
  %25 = load double, ptr %14, align 8, !tbaa !18
  %26 = load double, ptr %14, align 8, !tbaa !18
  %27 = fmul double %25, %26
  %28 = fdiv double 1.000000e+00, %27
  store double %28, ptr %16, align 8, !tbaa !18
  store i32 0, ptr %19, align 4, !tbaa !14
  br label %29

29:                                               ; preds = %108, %6
  %30 = load i32, ptr %19, align 4, !tbaa !14
  %31 = icmp sle i32 %30, 30
  br i1 %31, label %32, label %111

32:                                               ; preds = %29
  store i32 0, ptr %18, align 4, !tbaa !14
  br label %33

33:                                               ; preds = %104, %32
  %34 = load i32, ptr %18, align 4, !tbaa !14
  %35 = icmp sle i32 %34, 30
  br i1 %35, label %36, label %107

36:                                               ; preds = %33
  %37 = load i32, ptr %18, align 4, !tbaa !14
  %38 = load i32, ptr %19, align 4, !tbaa !14
  %39 = mul nsw i32 %38, 31
  %40 = add nsw i32 %37, %39
  store i32 %40, ptr %20, align 4, !tbaa !14
  %41 = load ptr, ptr %9, align 8, !tbaa !10
  %42 = load i32, ptr %20, align 4, !tbaa !14
  %43 = sext i32 %42 to i64
  %44 = call ptr @SUNBandMatrix_Column(ptr noundef %41, i64 noundef %43)
  store ptr %44, ptr %17, align 8, !tbaa !26
  %45 = load double, ptr %15, align 8, !tbaa !18
  %46 = load double, ptr %16, align 8, !tbaa !18
  %47 = fmul double 2.000000e+00, %46
  %48 = fneg double %47
  %49 = call double @llvm.fmuladd.f64(double -2.000000e+00, double %45, double %48)
  %50 = load ptr, ptr %17, align 8, !tbaa !26
  %51 = load i32, ptr %20, align 4, !tbaa !14
  %52 = load i32, ptr %20, align 4, !tbaa !14
  %53 = sub nsw i32 %51, %52
  %54 = sext i32 %53 to i64
  %55 = getelementptr inbounds double, ptr %50, i64 %54
  store double %49, ptr %55, align 8, !tbaa !18
  %56 = load i32, ptr %18, align 4, !tbaa !14
  %57 = icmp ne i32 %56, 30
  br i1 %57, label %58, label %67

58:                                               ; preds = %36
  %59 = load double, ptr %15, align 8, !tbaa !18
  %60 = load ptr, ptr %17, align 8, !tbaa !26
  %61 = load i32, ptr %20, align 4, !tbaa !14
  %62 = add nsw i32 %61, 1
  %63 = load i32, ptr %20, align 4, !tbaa !14
  %64 = sub nsw i32 %62, %63
  %65 = sext i32 %64 to i64
  %66 = getelementptr inbounds double, ptr %60, i64 %65
  store double %59, ptr %66, align 8, !tbaa !18
  br label %67

67:                                               ; preds = %58, %36
  %68 = load i32, ptr %18, align 4, !tbaa !14
  %69 = icmp ne i32 %68, 0
  br i1 %69, label %70, label %79

70:                                               ; preds = %67
  %71 = load double, ptr %15, align 8, !tbaa !18
  %72 = load ptr, ptr %17, align 8, !tbaa !26
  %73 = load i32, ptr %20, align 4, !tbaa !14
  %74 = sub nsw i32 %73, 1
  %75 = load i32, ptr %20, align 4, !tbaa !14
  %76 = sub nsw i32 %74, %75
  %77 = sext i32 %76 to i64
  %78 = getelementptr inbounds double, ptr %72, i64 %77
  store double %71, ptr %78, align 8, !tbaa !18
  br label %79

79:                                               ; preds = %70, %67
  %80 = load i32, ptr %19, align 4, !tbaa !14
  %81 = icmp ne i32 %80, 30
  br i1 %81, label %82, label %91

82:                                               ; preds = %79
  %83 = load double, ptr %16, align 8, !tbaa !18
  %84 = load ptr, ptr %17, align 8, !tbaa !26
  %85 = load i32, ptr %20, align 4, !tbaa !14
  %86 = add nsw i32 %85, 31
  %87 = load i32, ptr %20, align 4, !tbaa !14
  %88 = sub nsw i32 %86, %87
  %89 = sext i32 %88 to i64
  %90 = getelementptr inbounds double, ptr %84, i64 %89
  store double %83, ptr %90, align 8, !tbaa !18
  br label %91

91:                                               ; preds = %82, %79
  %92 = load i32, ptr %19, align 4, !tbaa !14
  %93 = icmp ne i32 %92, 0
  br i1 %93, label %94, label %103

94:                                               ; preds = %91
  %95 = load double, ptr %16, align 8, !tbaa !18
  %96 = load ptr, ptr %17, align 8, !tbaa !26
  %97 = load i32, ptr %20, align 4, !tbaa !14
  %98 = sub nsw i32 %97, 31
  %99 = load i32, ptr %20, align 4, !tbaa !14
  %100 = sub nsw i32 %98, %99
  %101 = sext i32 %100 to i64
  %102 = getelementptr inbounds double, ptr %96, i64 %101
  store double %95, ptr %102, align 8, !tbaa !18
  br label %103

103:                                              ; preds = %94, %91
  br label %104

104:                                              ; preds = %103
  %105 = load i32, ptr %18, align 4, !tbaa !14
  %106 = add nsw i32 %105, 1
  store i32 %106, ptr %18, align 4, !tbaa !14
  br label %33

107:                                              ; preds = %33
  br label %108

108:                                              ; preds = %107
  %109 = load i32, ptr %19, align 4, !tbaa !14
  %110 = add nsw i32 %109, 1
  store i32 %110, ptr %19, align 4, !tbaa !14
  br label %29

111:                                              ; preds = %29
  call void @llvm.lifetime.end.p0(i64 4, ptr %20) #5
  call void @llvm.lifetime.end.p0(i64 4, ptr %19) #5
  call void @llvm.lifetime.end.p0(i64 4, ptr %18) #5
  call void @llvm.lifetime.end.p0(i64 8, ptr %17) #5
  call void @llvm.lifetime.end.p0(i64 8, ptr %16) #5
  call void @llvm.lifetime.end.p0(i64 8, ptr %15) #5
  call void @llvm.lifetime.end.p0(i64 8, ptr %14) #5
  call void @llvm.lifetime.end.p0(i64 8, ptr %13) #5
  ret i32 0
}