; Function Attrs: nounwind uwtable
define internal noundef i32 @jac(ptr readnone captures(none) %0, ptr readnone captures(none) %1, ptr noundef %2, ptr readnone captures(none) %3, ptr readnone captures(none) %4, ptr readnone captures(none) %5) #0 {
  br label %.preheader

.preheader:                                       ; preds = %6, %.split.us
  %indvars.iv57 = phi i64 [ 0, %6 ], [ %indvars.iv.next58, %.split.us ]
  %7 = mul nuw nsw i64 %indvars.iv57, 31
  switch i64 %indvars.iv57, label %.preheader.split.split [
    i64 30, label %.preheader.split.us
    i64 0, label %.preheader.split.split.us
  ]

.preheader.split.us:                              ; preds = %.preheader, %14
  %indvars.iv53 = phi i64 [ %indvars.iv.next54, %14 ], [ 0, %.preheader ]
  %8 = add nuw nsw i64 %indvars.iv53, %7
  %9 = tail call ptr @SUNBandMatrix_Column(ptr noundef %2, i64 noundef %8) #6
  store double -4.096000e+03, ptr %9, align 8, !tbaa !12
  %cond.us = icmp eq i64 %indvars.iv53, 30
  br i1 %cond.us, label %12, label %10

10:                                               ; preds = %.preheader.split.us
  %11 = getelementptr inbounds nuw i8, ptr %9, i64 8
  store double 1.024000e+03, ptr %11, align 8, !tbaa !12
  %.not37.us = icmp eq i64 %indvars.iv53, 0
  br i1 %.not37.us, label %14, label %12

12:                                               ; preds = %10, %.preheader.split.us
  %13 = getelementptr inbounds i8, ptr %9, i64 -8
  store double 1.024000e+03, ptr %13, align 8, !tbaa !12
  br label %14

14:                                               ; preds = %12, %10
  %15 = getelementptr inbounds i8, ptr %9, i64 -248
  store double 1.024000e+03, ptr %15, align 8, !tbaa !12
  %indvars.iv.next54 = add nuw nsw i64 %indvars.iv53, 1
  %exitcond56.not = icmp eq i64 %indvars.iv.next54, 31
  br i1 %exitcond56.not, label %.split.us, label %.preheader.split.us

.preheader.split.split.us:                        ; preds = %.preheader, %21
  %indvars.iv49 = phi i64 [ %indvars.iv.next50, %21 ], [ %indvars.iv57, %.preheader ]
  %16 = tail call ptr @SUNBandMatrix_Column(ptr noundef %2, i64 noundef %indvars.iv49) #6
  store double -4.096000e+03, ptr %16, align 8, !tbaa !12
  %cond.us43 = icmp eq i64 %indvars.iv49, 30
  br i1 %cond.us43, label %19, label %17

17:                                               ; preds = %.preheader.split.split.us
  %18 = getelementptr inbounds nuw i8, ptr %16, i64 8
  store double 1.024000e+03, ptr %18, align 8, !tbaa !12
  %.not37.us44 = icmp eq i64 %indvars.iv49, 0
  br i1 %.not37.us44, label %21, label %19

19:                                               ; preds = %17, %.preheader.split.split.us
  %20 = getelementptr inbounds i8, ptr %16, i64 -8
  store double 1.024000e+03, ptr %20, align 8, !tbaa !12
  br label %21

21:                                               ; preds = %19, %17
  %22 = getelementptr inbounds nuw i8, ptr %16, i64 248
  store double 1.024000e+03, ptr %22, align 8, !tbaa !12
  %indvars.iv.next50 = add nuw nsw i64 %indvars.iv49, 1
  %exitcond52.not = icmp eq i64 %indvars.iv.next50, 31
  br i1 %exitcond52.not, label %.split.us, label %.preheader.split.split.us

.preheader.split.split:                           ; preds = %.preheader, %29
  %indvars.iv = phi i64 [ %indvars.iv.next, %29 ], [ 0, %.preheader ]
  %23 = add nuw nsw i64 %indvars.iv, %7
  %24 = tail call ptr @SUNBandMatrix_Column(ptr noundef %2, i64 noundef %23) #6
  store double -4.096000e+03, ptr %24, align 8, !tbaa !12
  %cond = icmp eq i64 %indvars.iv, 30
  br i1 %cond, label %27, label %25

25:                                               ; preds = %.preheader.split.split
  %26 = getelementptr inbounds nuw i8, ptr %24, i64 8
  store double 1.024000e+03, ptr %26, align 8, !tbaa !12
  %.not37 = icmp eq i64 %indvars.iv, 0
  br i1 %.not37, label %29, label %27

27:                                               ; preds = %.preheader.split.split, %25
  %28 = getelementptr inbounds i8, ptr %24, i64 -8
  store double 1.024000e+03, ptr %28, align 8, !tbaa !12
  br label %29

29:                                               ; preds = %27, %25
  %30 = getelementptr inbounds nuw i8, ptr %24, i64 248
  store double 1.024000e+03, ptr %30, align 8, !tbaa !12
  %31 = getelementptr inbounds i8, ptr %24, i64 -248
  store double 1.024000e+03, ptr %31, align 8, !tbaa !12
  %indvars.iv.next = add nuw nsw i64 %indvars.iv, 1
  %exitcond.not = icmp eq i64 %indvars.iv.next, 31
  br i1 %exitcond.not, label %.split.us, label %.preheader.split.split

.split.us:                                        ; preds = %21, %14, %29
  %indvars.iv.next58 = add nuw nsw i64 %indvars.iv57, 1
  %exitcond60.not = icmp eq i64 %indvars.iv.next58, 31
  br i1 %exitcond60.not, label %32, label %.preheader

32:                                               ; preds = %.split.us
  ret i32 0
}